; Function Attrs: nounwind uwtable
define i32 @Pdr_InvUsedFlopNum(ptr noundef readonly captures(none) %0) local_unnamed_addr #0 {
  %2 = getelementptr i8, ptr %0, i64 8
  %.val17.i = load ptr, ptr %2, align 8
  %3 = getelementptr i8, ptr %0, i64 4
  %.val18.i = load i32, ptr %3, align 4
  %4 = sext i32 %.val18.i to i64
  %5 = getelementptr i32, ptr %.val17.i, i64 %4
  %6 = getelementptr i8, ptr %5, i64 -4
  %7 = load i32, ptr %6, align 4
  %8 = add i32 %7, -1
  %or.cond.i.i.i = icmp ult i32 %8, 15
  %spec.store.select.i.i.i = select i1 %or.cond.i.i.i, i32 16, i32 %7
  %.not.i.i.i = icmp eq i32 %spec.store.select.i.i.i, 0
  br i1 %.not.i.i.i, label %Vec_IntStart.exit.i, label %Vec_IntAlloc.exit.i.i

Vec_IntAlloc.exit.i.i:                            ; preds = %1
  %9 = sext i32 %spec.store.select.i.i.i to i64
  %10 = shl nsw i64 %9, 2
  %11 = tail call noalias ptr @malloc(i64 noundef %10) #20
  %.not.i.i = icmp eq ptr %11, null
  br i1 %.not.i.i, label %Vec_IntStart.exit.i, label %12

12:                                               ; preds = %Vec_IntAlloc.exit.i.i
  %13 = sext i32 %7 to i64
  %14 = shl nsw i64 %13, 2
  tail call void @llvm.memset.p0.i64(ptr nonnull align 4 %11, i8 0, i64 %14, i1 false)
  br label %Vec_IntStart.exit.i

Vec_IntStart.exit.i:                              ; preds = %1, %12, %Vec_IntAlloc.exit.i.i
  %15 = phi ptr [ null, %Vec_IntAlloc.exit.i.i ], [ %11, %12 ], [ null, %1 ]
  %16 = load i32, ptr %.val17.i, align 4
  %17 = icmp sgt i32 %16, 0
  br i1 %17, label %.preheader.i, label %Pdr_InvCounts.exit

.preheader.i:                                     ; preds = %Vec_IntStart.exit.i, %._crit_edge.i
  %.val17.pn.i = phi ptr [ %30, %._crit_edge.i ], [ %.val17.i, %Vec_IntStart.exit.i ]
  %.022.i = phi i32 [ %29, %._crit_edge.i ], [ 0, %Vec_IntStart.exit.i ]
  %.01523.i = getelementptr i8, ptr %.val17.pn.i, i64 4
  %18 = load i32, ptr %.01523.i, align 4
  %19 = icmp sgt i32 %18, 0
  br i1 %19, label %.lr.ph.i, label %.preheader.._crit_edge_crit_edge.i

.preheader.._crit_edge_crit_edge.i:               ; preds = %.preheader.i
  %.pre.i = sext i32 %18 to i64
  br label %._crit_edge.i

.lr.ph.i:                                         ; preds = %.preheader.i
  %20 = zext nneg i32 %18 to i64
  br label %21

21:                                               ; preds = %21, %.lr.ph.i
  %indvars.iv.i = phi i64 [ 0, %.lr.ph.i ], [ %indvars.iv.next.i, %21 ]
  %indvars.iv.next.i = add nuw nsw i64 %indvars.iv.i, 1
  %22 = getelementptr inbounds nuw i32, ptr %.01523.i, i64 %indvars.iv.next.i
  %23 = load i32, ptr %22, align 4
  %24 = ashr i32 %23, 1
  %25 = sext i32 %24 to i64
  %26 = getelementptr inbounds i32, ptr %15, i64 %25
  %27 = load i32, ptr %26, align 4
  %28 = add nsw i32 %27, 1
  store i32 %28, ptr %26, align 4
  %exitcond.not = icmp eq i64 %indvars.iv.next.i, %20
  br i1 %exitcond.not, label %._crit_edge.i, label %21, !llvm.loop !36

._crit_edge.i:                                    ; preds = %21, %.preheader.._crit_edge_crit_edge.i
  %.pre-phi.i = phi i64 [ %.pre.i, %.preheader.._crit_edge_crit_edge.i ], [ %20, %21 ]
  %29 = add nuw nsw i32 %.022.i, 1
  %30 = getelementptr i32, ptr %.01523.i, i64 %.pre-phi.i
  %exitcond9.not = icmp eq i32 %29, %16
  br i1 %exitcond9.not, label %Pdr_InvCounts.exit, label %.preheader.i, !llvm.loop !37

Pdr_InvCounts.exit:                               ; preds = %._crit_edge.i, %Vec_IntStart.exit.i
  %31 = icmp sgt i32 %7, 0
  br i1 %31, label %.lr.ph.i6, label %Vec_IntCountZero.exit

.lr.ph.i6:                                        ; preds = %Pdr_InvCounts.exit
  %wide.trip.count.i = zext nneg i32 %7 to i64
  br label %32

32:                                               ; preds = %32, %.lr.ph.i6
  %indvars.iv.i7 = phi i64 [ 0, %.lr.ph.i6 ], [ %indvars.iv.next.i8, %32 ]
  %.08.i = phi i32 [ 0, %.lr.ph.i6 ], [ %37, %32 ]
  %33 = getelementptr inbounds nuw i32, ptr %15, i64 %indvars.iv.i7
  %34 = load i32, ptr %33, align 4
  %35 = icmp eq i32 %34, 0
  %36 = zext i1 %35 to i32
  %37 = add nuw nsw i32 %.08.i, %36
  %indvars.iv.next.i8 = add nuw nsw i64 %indvars.iv.i7, 1
  %exitcond.not.i = icmp eq i64 %indvars.iv.next.i8, %wide.trip.count.i
  br i1 %exitcond.not.i, label %Vec_IntCountZero.exit.thread, label %32, !llvm.loop !38

Vec_IntCountZero.exit:                            ; preds = %Pdr_InvCounts.exit
  %.not.i = icmp eq ptr %15, null
  br i1 %.not.i, label %Vec_IntFree.exit, label %Vec_IntCountZero.exit.thread

Vec_IntCountZero.exit.thread:                     ; preds = %32, %Vec_IntCountZero.exit
  %.0.lcssa.i12 = phi i32 [ 0, %Vec_IntCountZero.exit ], [ %37, %32 ]
  tail call void @free(ptr noundef nonnull %15) #18
  br label %Vec_IntFree.exit

Vec_IntFree.exit:                                 ; preds = %Vec_IntCountZero.exit, %Vec_IntCountZero.exit.thread
  %.0.lcssa.i13 = phi i32 [ 0, %Vec_IntCountZero.exit ], [ %.0.lcssa.i12, %Vec_IntCountZero.exit.thread ]
  %38 = sub nsw i32 %7, %.0.lcssa.i13
  ret i32 %38
}